; ModuleID = '31/546.c'
source_filename = "31/546.c"
target datalayout = "e-m:e-p270:32:32-p271:32:32-p272:64:64-i64:64-f80:128-n8:16:32:64-S128"
target triple = "x86_64-pc-linux-gnu"

%struct.student = type { [200 x i8], [300 x i8], i8, [20 x i8], [20 x i8], [200 x i8], %struct.student* }

@.str = private unnamed_addr constant [3 x i8] c"%s\00", align 1
@.str.1 = private unnamed_addr constant [4 x i8] c"end\00", align 1
@.str.2 = private unnamed_addr constant [3 x i8] c"%c\00", align 1
@.str.3 = private unnamed_addr constant [19 x i8] c"%s %s %c %s %s %s\0A\00", align 1

; Function Attrs: noinline nounwind uwtable
define dso_local i32 @main() #0 {
  %1 = alloca i32, align 4
  %2 = alloca i32, align 4
  %3 = alloca i32, align 4
  %4 = alloca %struct.student*, align 8
  %5 = alloca %struct.student*, align 8
  %6 = alloca %struct.student*, align 8
  %7 = alloca %struct.student*, align 8
  store i32 0, i32* %1, align 4
  store i32 0, i32* %3, align 4
  store %struct.student* null, %struct.student** %4, align 8
  store %struct.student* null, %struct.student** %6, align 8
  store %struct.student* null, %struct.student** %5, align 8
  store i32 1, i32* %2, align 4
  br label %8

8:                                                ; preds = %25, %0
  %9 = call noalias i8* @malloc(i64 100) #4
  %10 = bitcast i8* %9 to %struct.student*
  store %struct.student* %10, %struct.student** %5, align 8
  %11 = load %struct.student*, %struct.student** %6, align 8
  %12 = load %struct.student*, %struct.student** %5, align 8
  %13 = getelementptr inbounds %struct.student, %struct.student* %12, i32 0, i32 6
  store %struct.student* %11, %struct.student** %13, align 8
  %14 = load %struct.student*, %struct.student** %5, align 8
  %15 = getelementptr inbounds %struct.student, %struct.student* %14, i32 0, i32 0
  %16 = getelementptr inbounds [200 x i8], [200 x i8]* %15, i64 0, i64 0
  %17 = call i32 (i8*, ...) @__isoc99_scanf(i8* getelementptr inbounds ([3 x i8], [3 x i8]* @.str, i64 0, i64 0), i8* %16)
  %18 = load %struct.student*, %struct.student** %5, align 8
  %19 = getelementptr inbounds %struct.student, %struct.student* %18, i32 0, i32 0
  %20 = getelementptr inbounds [200 x i8], [200 x i8]* %19, i64 0, i64 0
  %21 = call i32 @strcmp(i8* %20, i8* getelementptr inbounds ([4 x i8], [4 x i8]* @.str.1, i64 0, i64 0)) #5
  %22 = icmp eq i32 %21, 0
  br i1 %22, label %23, label %25

23:                                               ; preds = %8
  %24 = load %struct.student*, %struct.student** %6, align 8
  store %struct.student* %24, %struct.student** %4, align 8
  br label %49

25:                                               ; preds = %8
  %26 = load %struct.student*, %struct.student** %5, align 8
  %27 = getelementptr inbounds %struct.student, %struct.student* %26, i32 0, i32 1
  %28 = getelementptr inbounds [300 x i8], [300 x i8]* %27, i64 0, i64 0
  %29 = call i32 (i8*, ...) @__isoc99_scanf(i8* getelementptr inbounds ([3 x i8], [3 x i8]* @.str, i64 0, i64 0), i8* %28)
  %30 = call i32 @getchar()
  %31 = load %struct.student*, %struct.student** %5, align 8
  %32 = getelementptr inbounds %struct.student, %struct.student* %31, i32 0, i32 2
  %33 = call i32 (i8*, ...) @__isoc99_scanf(i8* getelementptr inbounds ([3 x i8], [3 x i8]* @.str.2, i64 0, i64 0), i8* %32)
  %34 = load %struct.student*, %struct.student** %5, align 8
  %35 = getelementptr inbounds %struct.student, %struct.student* %34, i32 0, i32 3
  %36 = getelementptr inbounds [20 x i8], [20 x i8]* %35, i64 0, i64 0
  %37 = call i32 (i8*, ...) @__isoc99_scanf(i8* getelementptr inbounds ([3 x i8], [3 x i8]* @.str, i64 0, i64 0), i8* %36)
  %38 = load %struct.student*, %struct.student** %5, align 8
  %39 = getelementptr inbounds %struct.student, %struct.student* %38, i32 0, i32 4
  %40 = getelementptr inbounds [20 x i8], [20 x i8]* %39, i64 0, i64 0
  %41 = call i32 (i8*, ...) @__isoc99_scanf(i8* getelementptr inbounds ([3 x i8], [3 x i8]* @.str, i64 0, i64 0), i8* %40)
  %42 = load %struct.student*, %struct.student** %5, align 8
  %43 = getelementptr inbounds %struct.student, %struct.student* %42, i32 0, i32 5
  %44 = getelementptr inbounds [200 x i8], [200 x i8]* %43, i64 0, i64 0
  %45 = call i32 (i8*, ...) @__isoc99_scanf(i8* getelementptr inbounds ([3 x i8], [3 x i8]* @.str, i64 0, i64 0), i8* %44)
  %46 = load %struct.student*, %struct.student** %5, align 8
  store %struct.student* %46, %struct.student** %6, align 8
  %47 = load i32, i32* %2, align 4
  %48 = add nsw i32 %47, 1
  store i32 %48, i32* %2, align 4
  br label %8

49:                                               ; preds = %23
  %50 = load i32, i32* %2, align 4
  %51 = sub nsw i32 %50, 1
  store i32 %51, i32* %3, align 4
  br label %52

52:                                               ; preds = %49
  %53 = load %struct.student*, %struct.student** %4, align 8
  store %struct.student* %53, %struct.student** %7, align 8
  br label %54

54:                                               ; preds = %57, %52
  %55 = load %struct.student*, %struct.student** %7, align 8
  %56 = icmp ne %struct.student* %55, null
  br i1 %56, label %57, label %81

57:                                               ; preds = %54
  %58 = load %struct.student*, %struct.student** %7, align 8
  %59 = getelementptr inbounds %struct.student, %struct.student* %58, i32 0, i32 0
  %60 = getelementptr inbounds [200 x i8], [200 x i8]* %59, i64 0, i64 0
  %61 = load %struct.student*, %struct.student** %7, align 8
  %62 = getelementptr inbounds %struct.student, %struct.student* %61, i32 0, i32 1
  %63 = getelementptr inbounds [300 x i8], [300 x i8]* %62, i64 0, i64 0
  %64 = load %struct.student*, %struct.student** %7, align 8
  %65 = getelementptr inbounds %struct.student, %struct.student* %64, i32 0, i32 2
  %66 = load i8, i8* %65, align 4
  %67 = sext i8 %66 to i32
  %68 = load %struct.student*, %struct.student** %7, align 8
  %69 = getelementptr inbounds %struct.student, %struct.student* %68, i32 0, i32 3
  %70 = getelementptr inbounds [20 x i8], [20 x i8]* %69, i64 0, i64 0
  %71 = load %struct.student*, %struct.student** %7, align 8
  %72 = getelementptr inbounds %struct.student, %struct.student* %71, i32 0, i32 4
  %73 = getelementptr inbounds [20 x i8], [20 x i8]* %72, i64 0, i64 0
  %74 = load %struct.student*, %struct.student** %7, align 8
  %75 = getelementptr inbounds %struct.student, %struct.student* %74, i32 0, i32 5
  %76 = getelementptr inbounds [200 x i8], [200 x i8]* %75, i64 0, i64 0
  %77 = call i32 (i8*, ...) @printf(i8* getelementptr inbounds ([19 x i8], [19 x i8]* @.str.3, i64 0, i64 0), i8* %60, i8* %63, i32 %67, i8* %70, i8* %73, i8* %76)
  %78 = load %struct.student*, %struct.student** %7, align 8
  %79 = getelementptr inbounds %struct.student, %struct.student* %78, i32 0, i32 6
  %80 = load %struct.student*, %struct.student** %79, align 8
  store %struct.student* %80, %struct.student** %7, align 8
  br label %54

81:                                               ; preds = %54
  ret i32 0
}

; Function Attrs: nounwind
declare dso_local noalias i8* @malloc(i64) #1

declare dso_local i32 @__isoc99_scanf(i8*, ...) #2

; Function Attrs: nounwind readonly
declare dso_local i32 @strcmp(i8*, i8*) #3

declare dso_local i32 @getchar() #2

declare dso_local i32 @printf(i8*, ...) #2


!llvm.module.flags = !{!0}
!llvm.ident = !{!1}

!0 = !{i32 1, !"wchar_size", i32 4}
!1 = !{!"clang version 10.0.0-4ubuntu1 "}
